target datalayout = "e-m:e-p270:32:32-p271:32:32-p272:64:64-i64:64-i128:128-f80:128-n8:16:32:64-S128"
target triple = "x86_64-unknown-linux-gnu"

%"struct.node::AssertionInfo" = type { ptr, ptr, ptr }
%"class.node::MemoryRetainer" = type { ptr }
%"class.std::__cxx11::basic_string" = type { %"struct.std::__cxx11::basic_string<char>::_Alloc_hider", i64, %union.anon }
%"struct.std::__cxx11::basic_string<char>::_Alloc_hider" = type { ptr }
%union.anon = type { i64, [8 x i8] }
%"class.node::BaseObjectPtrImpl.331" = type { %union.anon.332 }
%union.anon.332 = type { ptr }
%"struct.node::BlobBindingData::StoredDataObject" = type { %"class.node::MemoryRetainer", %"class.node::BaseObjectPtrImpl.331", i64, %"class.std::__cxx11::basic_string" }

@_ZZN4node17BaseObjectPtrImplINS_4BlobELb0EEC1EPS1_E4args_0 = linkonce_odr dso_local constant %"struct.node::AssertionInfo" { ptr @.str.84, ptr @.str.80, ptr @.str.85 }, comdat, align 8

; Function Attrs: mustprogress nounwind uwtable
define linkonce_odr dso_local noundef ptr @_ZNK4node17BaseObjectPtrImplINS_4BlobELb0EE12pointer_dataEv(ptr noundef nonnull align 8 dereferenceable(8) %this) #4 comdat align 2 {
entry:
  %retval = alloca ptr, align 8
  %this.addr = alloca ptr, align 8
  store ptr %this, ptr %this.addr, align 8
  %this1 = load ptr, ptr %this.addr, align 8
  %call = call noundef ptr @_ZNK4node17BaseObjectPtrImplINS_4BlobELb0EE15get_base_objectEv(ptr noundef nonnull align 8 dereferenceable(8) %this1)
  %cmp = icmp eq ptr %call, null
  br i1 %cmp, label %if.then, label %if.end

if.then:                                          ; preds = %entry
  store ptr null, ptr %retval, align 8
  br label %return

if.end:                                           ; preds = %entry
  %call2 = call noundef ptr @_ZNK4node17BaseObjectPtrImplINS_4BlobELb0EE15get_base_objectEv(ptr noundef nonnull align 8 dereferenceable(8) %this1)
  %call3 = call noundef ptr @_ZN4node10BaseObject12pointer_dataEv(ptr noundef nonnull align 8 dereferenceable(32) %call2)
  store ptr %call3, ptr %retval, align 8
  br label %return

return:                                           ; preds = %if.end, %if.then
  %0 = load ptr, ptr %retval, align 8
  ret ptr %0
}

; Function Attrs: mustprogress nounwind uwtable
define linkonce_odr dso_local void @_ZN4node17BaseObjectPtrImplINS_4BlobELb0EEC2Ev(ptr noundef nonnull align 8 dereferenceable(8) %this) unnamed_addr #4 comdat align 2 {
entry:
  %this.addr = alloca ptr, align 8
  store ptr %this, ptr %this.addr, align 8
  %this1 = load ptr, ptr %this.addr, align 8
  %data_2 = getelementptr inbounds %"class.node::BaseObjectPtrImpl.331", ptr %this1, i32 0, i32 0
  store ptr null, ptr %data_2, align 8
  ret void
}

; Function Attrs: mustprogress nounwind uwtable
define linkonce_odr dso_local noundef ptr @_ZNK4node17BaseObjectPtrImplINS_4BlobELb0EE15get_base_objectEv(ptr noundef nonnull align 8 dereferenceable(8) %this) #4 comdat align 2 {
entry:
  %this.addr = alloca ptr, align 8
  store ptr %this, ptr %this.addr, align 8
  %this1 = load ptr, ptr %this.addr, align 8
  %data_ = getelementptr inbounds %"class.node::BaseObjectPtrImpl.331", ptr %this1, i32 0, i32 0
  %0 = load ptr, ptr %data_, align 8
  ret ptr %0
}

; Function Attrs: mustprogress nounwind uwtable
define linkonce_odr dso_local void @_ZN4node17BaseObjectPtrImplINS_4BlobELb0EEC2EPS1_(ptr noundef nonnull align 8 dereferenceable(8) %this, ptr noundef %target) unnamed_addr #4 comdat align 2 {
entry:
  %this.addr = alloca ptr, align 8
  %target.addr = alloca ptr, align 8
  store ptr %this, ptr %this.addr, align 8
  store ptr %target, ptr %target.addr, align 8
  %this1 = load ptr, ptr %this.addr, align 8
  call void @_ZN4node17BaseObjectPtrImplINS_4BlobELb0EEC2Ev(ptr noundef nonnull align 8 dereferenceable(8) %this1)
  %0 = load ptr, ptr %target.addr, align 8
  %cmp = icmp eq ptr %0, null
  br i1 %cmp, label %if.then, label %if.end

if.then:                                          ; preds = %entry
  br label %return

if.end:                                           ; preds = %entry
  %1 = load ptr, ptr %target.addr, align 8
  %data_ = getelementptr inbounds %"class.node::BaseObjectPtrImpl.331", ptr %this1, i32 0, i32 0
  store ptr %1, ptr %data_, align 8
  br label %do.body

do.body:                                          ; preds = %if.end
  %call = call noundef ptr @_ZNK4node17BaseObjectPtrImplINS_4BlobELb0EE12pointer_dataEv(ptr noundef nonnull align 8 dereferenceable(8) %this1)
  %cmp2 = icmp ne ptr %call, null
  %lnot = xor i1 %cmp2, true
  %lnot3 = xor i1 %lnot, true
  %lnot4 = xor i1 %lnot3, true
  br i1 %lnot4, label %if.then5, label %if.end7

if.then5:                                         ; preds = %do.body
  br label %do.body6

do.body6:                                         ; preds = %if.then5
  call void @_ZN4node6AssertERKNS_13AssertionInfoE(ptr noundef nonnull align 8 dereferenceable(24) @_ZZN4node17BaseObjectPtrImplINS_4BlobELb0EEC1EPS1_E4args_0)
  call void @abort() #15
  unreachable

do.end:                                           ; No predecessors!
  br label %if.end7

if.end7:                                          ; preds = %do.end, %do.body
  br label %do.end8

do.end8:                                          ; preds = %if.end7
  %call9 = call noundef ptr @_ZNK4node17BaseObjectPtrImplINS_4BlobELb0EE3getEv(ptr noundef nonnull align 8 dereferenceable(8) %this1)
  call void @_ZN4node10BaseObject17increase_refcountEv(ptr noundef nonnull align 8 dereferenceable(32) %call9)
  br label %return

return:                                           ; preds = %do.end8, %if.then
  ret void
}

; Function Attrs: mustprogress nounwind uwtable
define linkonce_odr dso_local noundef ptr @_ZNK4node17BaseObjectPtrImplINS_4BlobELb0EE3getEv(ptr noundef nonnull align 8 dereferenceable(8) %this) #4 comdat align 2 {
entry:
  %this.addr = alloca ptr, align 8
  store ptr %this, ptr %this.addr, align 8
  %this1 = load ptr, ptr %this.addr, align 8
  %call = call noundef ptr @_ZNK4node17BaseObjectPtrImplINS_4BlobELb0EE15get_base_objectEv(ptr noundef nonnull align 8 dereferenceable(8) %this1)
  ret ptr %call
}

; Function Attrs: mustprogress nounwind uwtable
define linkonce_odr dso_local void @_ZN4node17BaseObjectPtrImplINS_4BlobELb0EEC2ERKS2_(ptr noundef nonnull align 8 dereferenceable(8) %this, ptr noundef nonnull align 8 dereferenceable(8) %other) unnamed_addr #4 comdat align 2 {
entry:
  %this.addr = alloca ptr, align 8
  %other.addr = alloca ptr, align 8
  store ptr %this, ptr %this.addr, align 8
  store ptr %other, ptr %other.addr, align 8
  %this1 = load ptr, ptr %this.addr, align 8
  %0 = load ptr, ptr %other.addr, align 8
  %call = call noundef ptr @_ZNK4node17BaseObjectPtrImplINS_4BlobELb0EE3getEv(ptr noundef nonnull align 8 dereferenceable(8) %0)
  call void @_ZN4node17BaseObjectPtrImplINS_4BlobELb0EEC2EPS1_(ptr noundef nonnull align 8 dereferenceable(8) %this1, ptr noundef %call)
  ret void
}

; Function Attrs: mustprogress nounwind uwtable
define linkonce_odr dso_local void @_ZN4node14MemoryRetainerC2Ev(ptr noundef nonnull align 8 dereferenceable(8) %this) unnamed_addr #4 comdat align 2 {
entry:
  %this.addr = alloca ptr, align 8
  store ptr %this, ptr %this.addr, align 8
  %this1 = load ptr, ptr %this.addr, align 8
  store ptr getelementptr inbounds ({ [10 x ptr] }, ptr @_ZTVN4node14MemoryRetainerE, i32 0, i32 0, i32 2), ptr %this1, align 8
  ret void
}

; Function Attrs: mustprogress nounwind uwtable
define dso_local void @_ZN4node15BlobBindingData16StoredDataObjectC2ERKNS_17BaseObjectPtrImplINS_4BlobELb0EEEmRKNSt7__cxx1112basic_stringIcSt11char_traitsIcESaIcEEE(ptr noundef nonnull align 8 dereferenceable(56) %this, ptr noundef nonnull align 8 dereferenceable(8) %blob_, i64 noundef %length_, ptr noundef nonnull align 8 dereferenceable(32) %type_) unnamed_addr #4 align 2 {
entry:
  %this.addr = alloca ptr, align 8
  %blob_.addr = alloca ptr, align 8
  %length_.addr = alloca i64, align 8
  %type_.addr = alloca ptr, align 8
  store ptr %this, ptr %this.addr, align 8
  store ptr %blob_, ptr %blob_.addr, align 8
  store i64 %length_, ptr %length_.addr, align 8
  store ptr %type_, ptr %type_.addr, align 8
  %this1 = load ptr, ptr %this.addr, align 8
  call void @_ZN4node14MemoryRetainerC2Ev(ptr noundef nonnull align 8 dereferenceable(8) %this1) #3
  store ptr getelementptr inbounds ({ [10 x ptr] }, ptr @_ZTVN4node15BlobBindingData16StoredDataObjectE, i32 0, i32 0, i32 2), ptr %this1, align 8
  %blob = getelementptr inbounds %"struct.node::BlobBindingData::StoredDataObject", ptr %this1, i32 0, i32 1
  %0 = load ptr, ptr %blob_.addr, align 8
  call void @_ZN4node17BaseObjectPtrImplINS_4BlobELb0EEC2ERKS2_(ptr noundef nonnull align 8 dereferenceable(8) %blob, ptr noundef nonnull align 8 dereferenceable(8) %0)
  %length = getelementptr inbounds %"struct.node::BlobBindingData::StoredDataObject", ptr %this1, i32 0, i32 2
  %1 = load i64, ptr %length_.addr, align 8
  store i64 %1, ptr %length, align 8
  %type = getelementptr inbounds %"struct.node::BlobBindingData::StoredDataObject", ptr %this1, i32 0, i32 3
  %2 = load ptr, ptr %type_.addr, align 8
  call void @_ZNSt7__cxx1112basic_stringIcSt11char_traitsIcESaIcEEC1ERKS4_(ptr noundef nonnull align 8 dereferenceable(32) %type, ptr noundef nonnull align 8 dereferenceable(32) %2)
  ret void
}