; Function Attrs: mustprogress nounwind uwtable
define dso_local void @_ZN4node15BlobBindingData16StoredDataObjectC2ERKNS_17BaseObjectPtrImplINS_4BlobELb0EEEmRKNSt7__cxx1112basic_stringIcSt11char_traitsIcESaIcEEE(ptr noundef nonnull align 8 dereferenceable(56) %this, ptr nocapture noundef nonnull readonly align 8 dereferenceable(8) %blob_, i64 noundef %length_, ptr noundef nonnull align 8 dereferenceable(32) %type_) unnamed_addr #3 align 2 {
entry:
  store ptr getelementptr inbounds ({ [10 x ptr] }, ptr @_ZTVN4node15BlobBindingData16StoredDataObjectE, i64 0, i32 0, i64 2), ptr %this, align 8
  %blob = getelementptr inbounds i8, ptr %this, i64 8
  %0 = load ptr, ptr %blob_, align 8
  store ptr null, ptr %blob, align 8
  %cmp.i.i = icmp eq ptr %0, null
  br i1 %cmp.i.i, label %_ZN4node17BaseObjectPtrImplINS_4BlobELb0EEC2ERKS2_.exit, label %_ZNK4node17BaseObjectPtrImplINS_4BlobELb0EE12pointer_dataEv.exit.i.i

_ZNK4node17BaseObjectPtrImplINS_4BlobELb0EE12pointer_dataEv.exit.i.i: ; preds = %entry
  store ptr %0, ptr %blob, align 8
  %call3.i.i.i = tail call noundef ptr @_ZN4node10BaseObject12pointer_dataEv(ptr noundef nonnull align 8 dereferenceable(32) %0) #22
  %cmp2.not.i.i = icmp eq ptr %call3.i.i.i, null
  br i1 %cmp2.not.i.i, label %do.body6.i.i, label %do.end8.i.i

do.body6.i.i:                                     ; preds = %_ZNK4node17BaseObjectPtrImplINS_4BlobELb0EE12pointer_dataEv.exit.i.i
  tail call void @_ZN4node6AssertERKNS_13AssertionInfoE(ptr noundef nonnull align 8 dereferenceable(24) @_ZZN4node17BaseObjectPtrImplINS_4BlobELb0EEC1EPS1_E4args_0) #22
  tail call void @abort() #23
  unreachable

do.end8.i.i:                                      ; preds = %_ZNK4node17BaseObjectPtrImplINS_4BlobELb0EE12pointer_dataEv.exit.i.i
  %1 = load ptr, ptr %blob, align 8
  tail call void @_ZN4node10BaseObject17increase_refcountEv(ptr noundef nonnull align 8 dereferenceable(32) %1) #22
  br label %_ZN4node17BaseObjectPtrImplINS_4BlobELb0EEC2ERKS2_.exit

_ZN4node17BaseObjectPtrImplINS_4BlobELb0EEC2ERKS2_.exit: ; preds = %entry, %do.end8.i.i
  %length = getelementptr inbounds i8, ptr %this, i64 16
  store i64 %length_, ptr %length, align 8
  %type = getelementptr inbounds i8, ptr %this, i64 24
  tail call void @_ZNSt7__cxx1112basic_stringIcSt11char_traitsIcESaIcEEC1ERKS4_(ptr noundef nonnull align 8 dereferenceable(32) %type, ptr noundef nonnull align 8 dereferenceable(32) %type_) #22
  ret void
}